target datalayout = "e-m:e-p270:32:32-p271:32:32-p272:64:64-i64:64-i128:128-f80:128-n8:16:32:64-S128"
target triple = "x86_64-pc-linux-gnu"

%struct.AVRational = type { i32, i32 }
%struct.AVFormatContext = type { ptr, ptr, ptr, ptr, ptr, i32, i32, ptr, i32, ptr, i32, ptr, ptr, i64, i64, i64, i32, i32, i32, i64, i64, ptr, i32, i32, ptr, i32, i32, i32, i32, ptr, i64, i32, i32, %struct.AVIOInterruptCB, i32, i32, i32, i32, i64, i32, i32, i32, i32, i32, i32, i32, i32, i32, i32, i32, i32, i64, i32, i32, i32, i32, i32, ptr, ptr, ptr, ptr, i32, ptr, ptr, ptr, ptr, i32, ptr, ptr, i64, ptr, ptr, ptr, i64 }
%struct.AVIOInterruptCB = type { ptr, ptr }
%struct.AVIContext = type { ptr, i64, i64, i64, i64, i64, i64, i32, i32, i32, i32, ptr, i32, i64, i64, i32, i64 }
%struct.AVStream = type { ptr, i32, i32, ptr, ptr, %struct.AVRational, i64, i64, i64, i32, i32, %struct.AVRational, ptr, %struct.AVRational, %struct.AVPacket, i32, %struct.AVRational, i32 }
%struct.AVPacket = type { ptr, i64, i64, ptr, i32, i32, i32, ptr, i32, i64, i64, ptr, ptr, %struct.AVRational }
%struct.AVIStream = type { i64, i32, i32, i32, i32, i32, i32, i64, i32, i32, [256 x i32], i32, i32, ptr, ptr, ptr, i64 }

; Function Attrs: nounwind uwtable
define internal i32 @avi_read_close(ptr noundef %0) #0 {
  %2 = alloca ptr, align 8
  %3 = alloca i32, align 4
  %4 = alloca ptr, align 8
  %5 = alloca ptr, align 8
  %6 = alloca ptr, align 8
  store ptr %0, ptr %2, align 8, !tbaa !17
  call void @llvm.lifetime.start.p0(i64 4, ptr %3) #12
  call void @llvm.lifetime.start.p0(i64 8, ptr %4) #12
  %7 = load ptr, ptr %2, align 8, !tbaa !17
  %8 = getelementptr inbounds nuw %struct.AVFormatContext, ptr %7, i32 0, i32 3
  %9 = load ptr, ptr %8, align 8, !tbaa !19
  store ptr %9, ptr %4, align 8, !tbaa !34
  store i32 0, ptr %3, align 4, !tbaa !9
  br label %10

10:                                               ; preds = %47, %1
  %11 = load i32, ptr %3, align 4, !tbaa !9
  %12 = load ptr, ptr %2, align 8, !tbaa !17
  %13 = getelementptr inbounds nuw %struct.AVFormatContext, ptr %12, i32 0, i32 6
  %14 = load i32, ptr %13, align 4, !tbaa !62
  %15 = icmp ult i32 %11, %14
  br i1 %15, label %16, label %50

16:                                               ; preds = %10
  call void @llvm.lifetime.start.p0(i64 8, ptr %5) #12
  %17 = load ptr, ptr %2, align 8, !tbaa !17
  %18 = getelementptr inbounds nuw %struct.AVFormatContext, ptr %17, i32 0, i32 7
  %19 = load ptr, ptr %18, align 8, !tbaa !63
  %20 = load i32, ptr %3, align 4, !tbaa !9
  %21 = sext i32 %20 to i64
  %22 = getelementptr inbounds ptr, ptr %19, i64 %21
  %23 = load ptr, ptr %22, align 8, !tbaa !52
  store ptr %23, ptr %5, align 8, !tbaa !52
  call void @llvm.lifetime.start.p0(i64 8, ptr %6) #12
  %24 = load ptr, ptr %5, align 8, !tbaa !52
  %25 = getelementptr inbounds nuw %struct.AVStream, ptr %24, i32 0, i32 4
  %26 = load ptr, ptr %25, align 8, !tbaa !61
  store ptr %26, ptr %6, align 8, !tbaa !38
  %27 = load ptr, ptr %6, align 8, !tbaa !38
  %28 = icmp ne ptr %27, null
  br i1 %28, label %29, label %46

29:                                               ; preds = %16
  %30 = load ptr, ptr %6, align 8, !tbaa !38
  %31 = getelementptr inbounds nuw %struct.AVIStream, ptr %30, i32 0, i32 13
  %32 = load ptr, ptr %31, align 8, !tbaa !140
  %33 = icmp ne ptr %32, null
  br i1 %33, label %34, label %41

34:                                               ; preds = %29
  %35 = load ptr, ptr %6, align 8, !tbaa !38
  %36 = getelementptr inbounds nuw %struct.AVIStream, ptr %35, i32 0, i32 13
  %37 = load ptr, ptr %36, align 8, !tbaa !140
  %38 = getelementptr inbounds nuw %struct.AVFormatContext, ptr %37, i32 0, i32 4
  call void @av_freep(ptr noundef %38)
  %39 = load ptr, ptr %6, align 8, !tbaa !38
  %40 = getelementptr inbounds nuw %struct.AVIStream, ptr %39, i32 0, i32 13
  call void @avformat_close_input(ptr noundef %40)
  br label %41

41:                                               ; preds = %34, %29
  %42 = load ptr, ptr %6, align 8, !tbaa !38
  %43 = getelementptr inbounds nuw %struct.AVIStream, ptr %42, i32 0, i32 15
  call void @av_buffer_unref(ptr noundef %43)
  %44 = load ptr, ptr %6, align 8, !tbaa !38
  %45 = getelementptr inbounds nuw %struct.AVIStream, ptr %44, i32 0, i32 14
  call void @av_packet_free(ptr noundef %45)
  br label %46

46:                                               ; preds = %41, %16
  call void @llvm.lifetime.end.p0(i64 8, ptr %6) #12
  call void @llvm.lifetime.end.p0(i64 8, ptr %5) #12
  br label %47

47:                                               ; preds = %46
  %48 = load i32, ptr %3, align 4, !tbaa !9
  %49 = add nsw i32 %48, 1
  store i32 %49, ptr %3, align 4, !tbaa !9
  br label %10, !llvm.loop !141

50:                                               ; preds = %10
  %51 = load ptr, ptr %4, align 8, !tbaa !34
  %52 = getelementptr inbounds nuw %struct.AVIContext, ptr %51, i32 0, i32 11
  call void @av_freep(ptr noundef %52)
  call void @llvm.lifetime.end.p0(i64 8, ptr %4) #12
  call void @llvm.lifetime.end.p0(i64 4, ptr %3) #12
  ret i32 0
}