; Function Attrs: nounwind uwtable
define internal noundef i32 @avi_read_close(ptr noundef readonly captures(none) %0) #1 {
  %2 = getelementptr inbounds nuw i8, ptr %0, i64 24
  %3 = load ptr, ptr %2, align 8, !tbaa !14
  %4 = getelementptr inbounds nuw i8, ptr %0, i64 44
  %5 = load i32, ptr %4, align 4, !tbaa !54
  %.not17 = icmp eq i32 %5, 0
  br i1 %.not17, label %._crit_edge, label %.lr.ph

.lr.ph:                                           ; preds = %1
  %6 = getelementptr inbounds nuw i8, ptr %0, i64 48
  br label %7

7:                                                ; preds = %.lr.ph, %22
  %8 = phi i32 [ %5, %.lr.ph ], [ %23, %22 ]
  %indvars.iv = phi i64 [ 0, %.lr.ph ], [ %indvars.iv.next, %22 ]
  %9 = load ptr, ptr %6, align 8, !tbaa !55
  %10 = getelementptr inbounds nuw ptr, ptr %9, i64 %indvars.iv
  %11 = load ptr, ptr %10, align 8, !tbaa !56
  %12 = getelementptr inbounds nuw i8, ptr %11, i64 24
  %13 = load ptr, ptr %12, align 8, !tbaa !53
  %.not = icmp eq ptr %13, null
  br i1 %.not, label %22, label %14

14:                                               ; preds = %7
  %15 = getelementptr inbounds nuw i8, ptr %13, i64 1080
  %16 = load ptr, ptr %15, align 8, !tbaa !137
  %.not15 = icmp eq ptr %16, null
  br i1 %.not15, label %19, label %17

17:                                               ; preds = %14
  %18 = getelementptr inbounds nuw i8, ptr %16, i64 32
  tail call void @av_freep(ptr noundef nonnull %18) #14
  tail call void @avformat_close_input(ptr noundef nonnull %15) #14
  br label %19

19:                                               ; preds = %17, %14
  %20 = getelementptr inbounds nuw i8, ptr %13, i64 1096
  tail call void @av_buffer_unref(ptr noundef nonnull %20) #14
  %21 = getelementptr inbounds nuw i8, ptr %13, i64 1088
  tail call void @av_packet_free(ptr noundef nonnull %21) #14
  %.pre = load i32, ptr %4, align 4, !tbaa !54
  br label %22

22:                                               ; preds = %19, %7
  %23 = phi i32 [ %.pre, %19 ], [ %8, %7 ]
  %indvars.iv.next = add nuw nsw i64 %indvars.iv, 1
  %24 = zext i32 %23 to i64
  %25 = icmp samesign ult i64 %indvars.iv.next, %24
  br i1 %25, label %7, label %._crit_edge, !llvm.loop !153

._crit_edge:                                      ; preds = %22, %1
  %26 = getelementptr inbounds nuw i8, ptr %3, i64 72
  tail call void @av_freep(ptr noundef nonnull %26) #14
  ret i32 0
}